#include <math.h>
#include <stdio.h>
#include <stdlib.h>
#include <string.h>

int main()
{
	int n,k,i;
	scanf("%d", &n);
	if(n==1)
	{
		printf("End");
	}
	else
	{
		for(i=0;i>=0;i++){
			if(n==1)break;
			else if(n%2==1)
			{
			k=n*3+1;
			printf("%d*3+1=%d\n",n,k);
			n=k;
			}
			else if(n%2==0)
			{
				k=n/2;
				printf("%d/2=%d\n",n,k);
				n=k;
			}
			else if(n/2==1)
			{
				printf("%d/2=1\n",n);
				k=n;
			}
		
		}
		printf("End");
	}
	
	

	return 0;
}